; Function Attrs: mustprogress uwtable
define hidden void @_Z14mk_smt2_formatP4sortR19smt2_pp_environmentRK10params_refR7obj_refI3app11ast_managerE(ptr noundef %s, ptr noundef nonnull align 8 dereferenceable(56) %env, ptr noundef nonnull align 8 dereferenceable(8) %p, ptr nocapture noundef nonnull align 8 dereferenceable(16) %r) local_unnamed_addr #3 personality ptr @__gxx_personality_v0 {
entry:
  %pr = alloca %class.smt2_printer, align 8
  call void @_ZN12smt2_printerC2ER19smt2_pp_environmentRK10params_ref(ptr noundef nonnull align 8 dereferenceable(308) %pr, ptr noundef nonnull align 8 dereferenceable(56) %env, ptr noundef nonnull align 8 dereferenceable(8) %p)
  %m_env.i = getelementptr inbounds i8, ptr %pr, i64 8
  %0 = load ptr, ptr %m_env.i, align 8
  %vtable.i = load ptr, ptr %0, align 8
  %vfn.i = getelementptr inbounds i8, ptr %vtable.i, i64 136
  %1 = load ptr, ptr %vfn.i, align 8
  %call.i1 = invoke noundef ptr %1(ptr noundef nonnull align 8 dereferenceable(56) %0, ptr noundef %s)
          to label %call.i.noexc unwind label %lpad

call.i.noexc:                                     ; preds = %entry
  %tobool.not.i.i = icmp eq ptr %call.i1, null
  br i1 %tobool.not.i.i, label %if.end.i.i, label %_ZN11ast_manager7inc_refEP3ast.exit.i.i

_ZN11ast_manager7inc_refEP3ast.exit.i.i:          ; preds = %call.i.noexc
  %m_ref_count.i.i.i.i = getelementptr inbounds i8, ptr %call.i1, i64 8
  %2 = load i32, ptr %m_ref_count.i.i.i.i, align 4
  %inc.i.i.i.i = add i32 %2, 1
  store i32 %inc.i.i.i.i, ptr %m_ref_count.i.i.i.i, align 4
  br label %if.end.i.i

if.end.i.i:                                       ; preds = %_ZN11ast_manager7inc_refEP3ast.exit.i.i, %call.i.noexc
  %3 = load ptr, ptr %r, align 8
  %tobool.not.i3.i.i = icmp eq ptr %3, null
  br i1 %tobool.not.i3.i.i, label %invoke.cont, label %if.then.i.i.i.i

if.then.i.i.i.i:                                  ; preds = %if.end.i.i
  %m_manager.i.i.i = getelementptr inbounds i8, ptr %r, i64 8
  %4 = load ptr, ptr %m_manager.i.i.i, align 8
  %m_ref_count.i.i.i.i.i = getelementptr inbounds i8, ptr %3, i64 8
  %5 = load i32, ptr %m_ref_count.i.i.i.i.i, align 4
  %dec.i.i.i.i.i = add i32 %5, -1
  store i32 %dec.i.i.i.i.i, ptr %m_ref_count.i.i.i.i.i, align 4
  %cmp.i.i.i.i = icmp eq i32 %dec.i.i.i.i.i, 0
  br i1 %cmp.i.i.i.i, label %if.then2.i.i.i.i, label %invoke.cont

if.then2.i.i.i.i:                                 ; preds = %if.then.i.i.i.i
  invoke void @_ZN11ast_manager11delete_nodeEP3ast(ptr noundef nonnull align 8 dereferenceable(976) %4, ptr noundef nonnull %3)
          to label %invoke.cont unwind label %lpad

invoke.cont:                                      ; preds = %if.then.i.i.i.i, %if.end.i.i, %if.then2.i.i.i.i
  store ptr %call.i1, ptr %r, align 8
  call void @_ZN12smt2_printerD2Ev(ptr noundef nonnull align 8 dereferenceable(308) %pr) #19
  ret void

lpad:                                             ; preds = %if.then2.i.i.i.i, %entry
  %6 = landingpad { ptr, i32 }
          cleanup
  call void @_ZN12smt2_printerD2Ev(ptr noundef nonnull align 8 dereferenceable(308) %pr) #19
  resume { ptr, i32 } %6
}